target datalayout = "e-m:e-p270:32:32-p271:32:32-p272:64:64-i64:64-i128:128-f80:128-n8:16:32:64-S128"
target triple = "x86_64-pc-linux-gnu"

%struct.PQExpBufferData = type { ptr, i64, i64 }

; Function Attrs: nounwind uwtable
define dso_local void @appendStringLiteral(ptr noundef %0, ptr noundef %1, i32 noundef %2, i1 noundef zeroext %3) #0 {
  %5 = alloca ptr, align 8
  %6 = alloca ptr, align 8
  %7 = alloca i32, align 4
  %8 = alloca i8, align 1
  %9 = alloca i64, align 8
  %10 = alloca ptr, align 8
  %11 = alloca ptr, align 8
  %12 = alloca i64, align 8
  %13 = alloca i32, align 4
  %14 = alloca i8, align 1
  %15 = alloca i32, align 4
  %16 = alloca i32, align 4
  store ptr %0, ptr %5, align 8
  store ptr %1, ptr %6, align 8
  store i32 %2, ptr %7, align 4
  %17 = zext i1 %3 to i8
  store i8 %17, ptr %8, align 1
  call void @llvm.lifetime.start.p0(i64 8, ptr %9) #8
  %18 = load ptr, ptr %6, align 8
  %19 = call i64 @strlen(ptr noundef %18) #9
  store i64 %19, ptr %9, align 8
  call void @llvm.lifetime.start.p0(i64 8, ptr %10) #8
  %20 = load ptr, ptr %6, align 8
  store ptr %20, ptr %10, align 8
  call void @llvm.lifetime.start.p0(i64 8, ptr %11) #8
  call void @llvm.lifetime.start.p0(i64 8, ptr %12) #8
  %21 = load i64, ptr %9, align 8
  store i64 %21, ptr %12, align 8
  %22 = load ptr, ptr %5, align 8
  %23 = load i64, ptr %9, align 8
  %24 = mul i64 2, %23
  %25 = add i64 %24, 2
  %26 = call i32 @enlargePQExpBuffer(ptr noundef %22, i64 noundef %25)
  %27 = icmp ne i32 %26, 0
  br i1 %27, label %29, label %28

28:                                               ; preds = %4
  store i32 1, ptr %13, align 4
  br label %129

29:                                               ; preds = %4
  %30 = load ptr, ptr %5, align 8
  %31 = getelementptr inbounds nuw %struct.PQExpBufferData, ptr %30, i32 0, i32 0
  %32 = load ptr, ptr %31, align 8
  %33 = load ptr, ptr %5, align 8
  %34 = getelementptr inbounds nuw %struct.PQExpBufferData, ptr %33, i32 0, i32 1
  %35 = load i64, ptr %34, align 8
  %36 = getelementptr inbounds nuw i8, ptr %32, i64 %35
  store ptr %36, ptr %11, align 8
  %37 = load ptr, ptr %11, align 8
  %38 = getelementptr inbounds nuw i8, ptr %37, i32 1
  store ptr %38, ptr %11, align 8
  store i8 39, ptr %37, align 1
  br label %39

39:                                               ; preds = %115, %113, %29
  %40 = load i64, ptr %12, align 8
  %41 = icmp ugt i64 %40, 0
  br i1 %41, label %42, label %116

42:                                               ; preds = %39
  call void @llvm.lifetime.start.p0(i64 1, ptr %14) #8
  %43 = load ptr, ptr %10, align 8
  %44 = load i8, ptr %43, align 1
  store i8 %44, ptr %14, align 1
  call void @llvm.lifetime.start.p0(i64 4, ptr %15) #8
  call void @llvm.lifetime.start.p0(i64 4, ptr %16) #8
  %45 = load i8, ptr %14, align 1
  %46 = zext i8 %45 to i32
  %47 = and i32 %46, 128
  %48 = icmp ne i32 %47, 0
  br i1 %48, label %72, label %49

49:                                               ; preds = %42
  %50 = load i8, ptr %14, align 1
  %51 = sext i8 %50 to i32
  %52 = icmp eq i32 %51, 39
  br i1 %52, label %60, label %53

53:                                               ; preds = %49
  %54 = load i8, ptr %14, align 1
  %55 = sext i8 %54 to i32
  %56 = icmp eq i32 %55, 92
  br i1 %56, label %57, label %64

57:                                               ; preds = %53
  %58 = load i8, ptr %8, align 1, !range !6, !noundef !7
  %59 = trunc i8 %58 to i1
  br i1 %59, label %64, label %60

60:                                               ; preds = %57, %49
  %61 = load i8, ptr %14, align 1
  %62 = load ptr, ptr %11, align 8
  %63 = getelementptr inbounds nuw i8, ptr %62, i32 1
  store ptr %63, ptr %11, align 8
  store i8 %61, ptr %62, align 1
  br label %64

64:                                               ; preds = %60, %57, %53
  %65 = load i8, ptr %14, align 1
  %66 = load ptr, ptr %11, align 8
  %67 = getelementptr inbounds nuw i8, ptr %66, i32 1
  store ptr %67, ptr %11, align 8
  store i8 %65, ptr %66, align 1
  %68 = load ptr, ptr %10, align 8
  %69 = getelementptr inbounds nuw i8, ptr %68, i32 1
  store ptr %69, ptr %10, align 8
  %70 = load i64, ptr %12, align 8
  %71 = add i64 %70, -1
  store i64 %71, ptr %12, align 8
  store i32 2, ptr %13, align 4
  br label %113, !llvm.loop !10

72:                                               ; preds = %42
  %73 = load ptr, ptr %10, align 8
  %74 = load i32, ptr %7, align 4
  %75 = call i32 @PQmblen(ptr noundef %73, i32 noundef %74)
  store i32 %75, ptr %15, align 4
  %76 = load i64, ptr %12, align 8
  %77 = load i32, ptr %15, align 4
  %78 = sext i32 %77 to i64
  %79 = icmp ult i64 %76, %78
  br i1 %79, label %86, label %80

80:                                               ; preds = %72
  %81 = load i32, ptr %7, align 4
  %82 = load ptr, ptr %10, align 8
  %83 = load i32, ptr %15, align 4
  %84 = call i32 @pg_encoding_verifymbchar(i32 noundef %81, ptr noundef %82, i32 noundef %83)
  %85 = icmp eq i32 %84, -1
  br i1 %85, label %86, label %95

86:                                               ; preds = %80, %72
  %87 = load i32, ptr %7, align 4
  %88 = load ptr, ptr %11, align 8
  call void @pg_encoding_set_invalid(i32 noundef %87, ptr noundef %88)
  %89 = load ptr, ptr %11, align 8
  %90 = getelementptr inbounds i8, ptr %89, i64 2
  store ptr %90, ptr %11, align 8
  %91 = load ptr, ptr %10, align 8
  %92 = getelementptr inbounds nuw i8, ptr %91, i32 1
  store ptr %92, ptr %10, align 8
  %93 = load i64, ptr %12, align 8
  %94 = add i64 %93, -1
  store i64 %94, ptr %12, align 8
  br label %112

95:                                               ; preds = %80
  store i32 0, ptr %16, align 4
  br label %96

96:                                               ; preds = %108, %95
  %97 = load i32, ptr %16, align 4
  %98 = load i32, ptr %15, align 4
  %99 = icmp slt i32 %97, %98
  br i1 %99, label %100, label %111

100:                                              ; preds = %96
  %101 = load ptr, ptr %10, align 8
  %102 = getelementptr inbounds nuw i8, ptr %101, i32 1
  store ptr %102, ptr %10, align 8
  %103 = load i8, ptr %101, align 1
  %104 = load ptr, ptr %11, align 8
  %105 = getelementptr inbounds nuw i8, ptr %104, i32 1
  store ptr %105, ptr %11, align 8
  store i8 %103, ptr %104, align 1
  %106 = load i64, ptr %12, align 8
  %107 = add i64 %106, -1
  store i64 %107, ptr %12, align 8
  br label %108

108:                                              ; preds = %100
  %109 = load i32, ptr %16, align 4
  %110 = add i32 %109, 1
  store i32 %110, ptr %16, align 4
  br label %96, !llvm.loop !11

111:                                              ; preds = %96
  br label %112

112:                                              ; preds = %111, %86
  store i32 0, ptr %13, align 4
  br label %113

113:                                              ; preds = %112, %64
  call void @llvm.lifetime.end.p0(i64 4, ptr %16) #8
  call void @llvm.lifetime.end.p0(i64 4, ptr %15) #8
  call void @llvm.lifetime.end.p0(i64 1, ptr %14) #8
  %114 = load i32, ptr %13, align 4
  switch i32 %114, label %132 [
    i32 0, label %115
    i32 2, label %39
  ]

115:                                              ; preds = %113
  br label %39, !llvm.loop !10

116:                                              ; preds = %39
  %117 = load ptr, ptr %11, align 8
  %118 = getelementptr inbounds nuw i8, ptr %117, i32 1
  store ptr %118, ptr %11, align 8
  store i8 39, ptr %117, align 1
  %119 = load ptr, ptr %11, align 8
  store i8 0, ptr %119, align 1
  %120 = load ptr, ptr %11, align 8
  %121 = load ptr, ptr %5, align 8
  %122 = getelementptr inbounds nuw %struct.PQExpBufferData, ptr %121, i32 0, i32 0
  %123 = load ptr, ptr %122, align 8
  %124 = ptrtoint ptr %120 to i64
  %125 = ptrtoint ptr %123 to i64
  %126 = sub i64 %124, %125
  %127 = load ptr, ptr %5, align 8
  %128 = getelementptr inbounds nuw %struct.PQExpBufferData, ptr %127, i32 0, i32 1
  store i64 %126, ptr %128, align 8
  store i32 0, ptr %13, align 4
  br label %129

129:                                              ; preds = %116, %28
  call void @llvm.lifetime.end.p0(i64 8, ptr %12) #8
  call void @llvm.lifetime.end.p0(i64 8, ptr %11) #8
  call void @llvm.lifetime.end.p0(i64 8, ptr %10) #8
  call void @llvm.lifetime.end.p0(i64 8, ptr %9) #8
  %130 = load i32, ptr %13, align 4
  switch i32 %130, label %132 [
    i32 0, label %131
    i32 1, label %131
  ]

131:                                              ; preds = %129, %129
  ret void

132:                                              ; preds = %129, %113
  unreachable
}