; Function Attrs: nounwind uwtable
define dso_local void @appendStringLiteral(ptr noundef %0, ptr noundef %1, i32 noundef %2, i1 noundef zeroext %3) local_unnamed_addr #0 {
  %5 = tail call i64 @strlen(ptr noundef nonnull dereferenceable(1) %1) #12
  %6 = shl i64 %5, 1
  %7 = add i64 %6, 2
  %8 = tail call i32 @enlargePQExpBuffer(ptr noundef %0, i64 noundef %7) #11
  %.not = icmp eq i32 %8, 0
  br i1 %.not, label %70, label %9

9:                                                ; preds = %4
  %10 = load ptr, ptr %0, align 8
  %11 = getelementptr inbounds nuw i8, ptr %0, i64 8
  %12 = load i64, ptr %11, align 8
  %13 = getelementptr inbounds nuw i8, ptr %10, i64 %12
  %14 = getelementptr inbounds nuw i8, ptr %13, i64 1
  store i8 39, ptr %13, align 1
  %.not5260 = icmp eq i64 %5, 0
  br i1 %.not5260, label %._crit_edge, label %.lr.ph64

.lr.ph64:                                         ; preds = %9
  br i1 %3, label %.lr.ph64.split.us, label %.lr.ph64.split

.lr.ph64.split.us:                                ; preds = %.lr.ph64, %.loopexit.us
  %.04263.us = phi ptr [ %.1.us, %.loopexit.us ], [ %1, %.lr.ph64 ]
  %.04362.us = phi ptr [ %.245.us, %.loopexit.us ], [ %14, %.lr.ph64 ]
  %.04761.us = phi i64 [ %.148.us, %.loopexit.us ], [ %5, %.lr.ph64 ]
  %15 = load i8, ptr %.04263.us, align 1
  %.not53.us = icmp sgt i8 %15, -1
  br i1 %.not53.us, label %32, label %16

16:                                               ; preds = %.lr.ph64.split.us
  %17 = tail call i32 @PQmblen(ptr noundef nonnull %.04263.us, i32 noundef %2) #11
  %18 = sext i32 %17 to i64
  %19 = icmp ult i64 %.04761.us, %18
  br i1 %19, label %28, label %20

20:                                               ; preds = %16
  %21 = tail call i32 @pg_encoding_verifymbchar(i32 noundef %2, ptr noundef nonnull %.04263.us, i32 noundef %17) #11
  %22 = icmp eq i32 %21, -1
  br i1 %22, label %28, label %.preheader.us

.lr.ph.us:                                        ; preds = %.preheader.us, %.lr.ph.us
  %.057.us = phi i32 [ %27, %.lr.ph.us ], [ 0, %.preheader.us ]
  %.356.us = phi ptr [ %23, %.lr.ph.us ], [ %.04263.us, %.preheader.us ]
  %.455.us = phi ptr [ %25, %.lr.ph.us ], [ %.04362.us, %.preheader.us ]
  %.35054.us = phi i64 [ %26, %.lr.ph.us ], [ %.04761.us, %.preheader.us ]
  %23 = getelementptr inbounds nuw i8, ptr %.356.us, i64 1
  %24 = load i8, ptr %.356.us, align 1
  %25 = getelementptr inbounds nuw i8, ptr %.455.us, i64 1
  store i8 %24, ptr %.455.us, align 1
  %26 = add i64 %.35054.us, -1
  %27 = add nuw nsw i32 %.057.us, 1
  %exitcond72.not = icmp eq i32 %27, %17
  br i1 %exitcond72.not, label %.loopexit.us, label %.lr.ph.us, !llvm.loop !8

28:                                               ; preds = %20, %16
  tail call void @pg_encoding_set_invalid(i32 noundef %2, ptr noundef %.04362.us) #11
  %29 = getelementptr inbounds nuw i8, ptr %.04362.us, i64 2
  %30 = getelementptr inbounds nuw i8, ptr %.04263.us, i64 1
  %31 = add i64 %.04761.us, -1
  br label %.loopexit.us

32:                                               ; preds = %.lr.ph64.split.us
  %cond = icmp eq i8 %15, 39
  br i1 %cond, label %33, label %35

33:                                               ; preds = %32
  %34 = getelementptr inbounds nuw i8, ptr %.04362.us, i64 1
  store i8 39, ptr %.04362.us, align 1
  br label %35

35:                                               ; preds = %32, %33
  %.144.us = phi ptr [ %34, %33 ], [ %.04362.us, %32 ]
  %36 = getelementptr inbounds nuw i8, ptr %.144.us, i64 1
  store i8 %15, ptr %.144.us, align 1
  %37 = getelementptr inbounds nuw i8, ptr %.04263.us, i64 1
  %38 = add i64 %.04761.us, -1
  br label %.loopexit.us, !llvm.loop !9

.loopexit.us:                                     ; preds = %.lr.ph.us, %.preheader.us, %35, %28
  %.148.us = phi i64 [ %38, %35 ], [ %31, %28 ], [ %.04761.us, %.preheader.us ], [ %26, %.lr.ph.us ]
  %.245.us = phi ptr [ %36, %35 ], [ %29, %28 ], [ %.04362.us, %.preheader.us ], [ %25, %.lr.ph.us ]
  %.1.us = phi ptr [ %37, %35 ], [ %30, %28 ], [ %.04263.us, %.preheader.us ], [ %23, %.lr.ph.us ]
  %.not52.us = icmp eq i64 %.148.us, 0
  br i1 %.not52.us, label %._crit_edge, label %.lr.ph64.split.us

.preheader.us:                                    ; preds = %20
  %39 = icmp sgt i32 %17, 0
  br i1 %39, label %.lr.ph.us, label %.loopexit.us

.lr.ph64.split:                                   ; preds = %.lr.ph64, %.loopexit
  %.04263 = phi ptr [ %.1, %.loopexit ], [ %1, %.lr.ph64 ]
  %.04362 = phi ptr [ %.245, %.loopexit ], [ %14, %.lr.ph64 ]
  %.04761 = phi i64 [ %.148, %.loopexit ], [ %5, %.lr.ph64 ]
  %40 = load i8, ptr %.04263, align 1
  %.not53 = icmp sgt i8 %40, -1
  br i1 %.not53, label %41, label %48

41:                                               ; preds = %.lr.ph64.split
  switch i8 %40, label %44 [
    i8 39, label %42
    i8 92, label %42
  ]

42:                                               ; preds = %41, %41
  %43 = getelementptr inbounds nuw i8, ptr %.04362, i64 1
  store i8 %40, ptr %.04362, align 1
  br label %44

44:                                               ; preds = %41, %42
  %.144 = phi ptr [ %43, %42 ], [ %.04362, %41 ]
  %45 = getelementptr inbounds nuw i8, ptr %.144, i64 1
  store i8 %40, ptr %.144, align 1
  %46 = getelementptr inbounds nuw i8, ptr %.04263, i64 1
  %47 = add i64 %.04761, -1
  br label %.loopexit, !llvm.loop !9

48:                                               ; preds = %.lr.ph64.split
  %49 = tail call i32 @PQmblen(ptr noundef nonnull %.04263, i32 noundef %2) #11
  %50 = sext i32 %49 to i64
  %51 = icmp ult i64 %.04761, %50
  br i1 %51, label %56, label %52

52:                                               ; preds = %48
  %53 = tail call i32 @pg_encoding_verifymbchar(i32 noundef %2, ptr noundef nonnull %.04263, i32 noundef %49) #11
  %54 = icmp eq i32 %53, -1
  br i1 %54, label %56, label %.preheader

.preheader:                                       ; preds = %52
  %55 = icmp sgt i32 %49, 0
  br i1 %55, label %.lr.ph, label %.loopexit

56:                                               ; preds = %52, %48
  tail call void @pg_encoding_set_invalid(i32 noundef %2, ptr noundef %.04362) #11
  %57 = getelementptr inbounds nuw i8, ptr %.04362, i64 2
  %58 = getelementptr inbounds nuw i8, ptr %.04263, i64 1
  %59 = add i64 %.04761, -1
  br label %.loopexit

.lr.ph:                                           ; preds = %.preheader, %.lr.ph
  %.057 = phi i32 [ %64, %.lr.ph ], [ 0, %.preheader ]
  %.356 = phi ptr [ %60, %.lr.ph ], [ %.04263, %.preheader ]
  %.455 = phi ptr [ %62, %.lr.ph ], [ %.04362, %.preheader ]
  %.35054 = phi i64 [ %63, %.lr.ph ], [ %.04761, %.preheader ]
  %60 = getelementptr inbounds nuw i8, ptr %.356, i64 1
  %61 = load i8, ptr %.356, align 1
  %62 = getelementptr inbounds nuw i8, ptr %.455, i64 1
  store i8 %61, ptr %.455, align 1
  %63 = add i64 %.35054, -1
  %64 = add nuw nsw i32 %.057, 1
  %exitcond.not = icmp eq i32 %64, %49
  br i1 %exitcond.not, label %.loopexit, label %.lr.ph, !llvm.loop !8

.loopexit:                                        ; preds = %.lr.ph, %.preheader, %56, %44
  %.148 = phi i64 [ %47, %44 ], [ %59, %56 ], [ %.04761, %.preheader ], [ %63, %.lr.ph ]
  %.245 = phi ptr [ %45, %44 ], [ %57, %56 ], [ %.04362, %.preheader ], [ %62, %.lr.ph ]
  %.1 = phi ptr [ %46, %44 ], [ %58, %56 ], [ %.04263, %.preheader ], [ %60, %.lr.ph ]
  %.not52 = icmp eq i64 %.148, 0
  br i1 %.not52, label %._crit_edge, label %.lr.ph64.split

._crit_edge:                                      ; preds = %.loopexit, %.loopexit.us, %9
  %.043.lcssa = phi ptr [ %14, %9 ], [ %.245.us, %.loopexit.us ], [ %.245, %.loopexit ]
  %65 = getelementptr inbounds nuw i8, ptr %.043.lcssa, i64 1
  store i8 39, ptr %.043.lcssa, align 1
  store i8 0, ptr %65, align 1
  %66 = load ptr, ptr %0, align 8
  %67 = ptrtoint ptr %65 to i64
  %68 = ptrtoint ptr %66 to i64
  %69 = sub i64 %67, %68
  store i64 %69, ptr %11, align 8
  br label %70

70:                                               ; preds = %4, %._crit_edge
  ret void
}